; ModuleID = '50/2694.c'
source_filename = "50/2694.c"
target datalayout = "e-m:e-p270:32:32-p271:32:32-p272:64:64-i64:64-f80:128-n8:16:32:64-S128"
target triple = "x86_64-pc-linux-gnu"

@.str = private unnamed_addr constant [3 x i8] c"%d\00", align 1
@.str.1 = private unnamed_addr constant [4 x i8] c"%d\0A\00", align 1

; Function Attrs: noinline nounwind uwtable
define dso_local i32 @main() #0 {
  %1 = alloca i32, align 4
  %2 = alloca i32, align 4
  %3 = alloca i32, align 4
  %4 = alloca i32, align 4
  store i32 0, i32* %1, align 4
  store i32 0, i32* %2, align 4
  %5 = call i32 (i8*, ...) @__isoc99_scanf(i8* getelementptr inbounds ([3 x i8], [3 x i8]* @.str, i64 0, i64 0), i32* %2)
  store i32 0, i32* %3, align 4
  %6 = load i32, i32* %2, align 4
  %7 = icmp sgt i32 %6, 5
  br i1 %7, label %8, label %11

8:                                                ; preds = %0
  %9 = load i32, i32* %2, align 4
  %10 = sub nsw i32 12, %9
  store i32 %10, i32* %3, align 4
  br label %11

11:                                               ; preds = %8, %0
  %12 = load i32, i32* %2, align 4
  %13 = icmp slt i32 %12, 5
  br i1 %13, label %14, label %17

14:                                               ; preds = %11
  %15 = load i32, i32* %2, align 4
  %16 = sub nsw i32 5, %15
  store i32 %16, i32* %3, align 4
  br label %17

17:                                               ; preds = %14, %11
  store i32 1, i32* %4, align 4
  br label %18

18:                                               ; preds = %31, %17
  %19 = load i32, i32* %4, align 4
  %20 = icmp sle i32 %19, 12
  br i1 %20, label %21, label %34

21:                                               ; preds = %18
  %22 = load i32, i32* %4, align 4
  %23 = call i32 @daycount(i32 %22)
  %24 = srem i32 %23, 7
  %25 = load i32, i32* %3, align 4
  %26 = icmp eq i32 %24, %25
  br i1 %26, label %27, label %30

27:                                               ; preds = %21
  %28 = load i32, i32* %4, align 4
  %29 = call i32 (i8*, ...) @printf(i8* getelementptr inbounds ([4 x i8], [4 x i8]* @.str.1, i64 0, i64 0), i32 %28)
  br label %30

30:                                               ; preds = %27, %21
  br label %31

31:                                               ; preds = %30
  %32 = load i32, i32* %4, align 4
  %33 = add nsw i32 %32, 1
  store i32 %33, i32* %4, align 4
  br label %18

34:                                               ; preds = %18
  ret i32 0
}

declare dso_local i32 @__isoc99_scanf(i8*, ...) #1

; Function Attrs: noinline nounwind uwtable
define dso_local i32 @daycount(i32 %0) #0 {
  %2 = alloca i32, align 4
  %3 = alloca i32, align 4
  %4 = alloca i32, align 4
  %5 = alloca i32, align 4
  store i32 %0, i32* %3, align 4
  %6 = load i32, i32* %3, align 4
  %7 = icmp eq i32 %6, 1
  br i1 %7, label %8, label %9

8:                                                ; preds = %1
  store i32 12, i32* %2, align 4
  br label %24

9:                                                ; preds = %1
  store i32 12, i32* %4, align 4
  store i32 1, i32* %5, align 4
  br label %10

10:                                               ; preds = %19, %9
  %11 = load i32, i32* %5, align 4
  %12 = load i32, i32* %3, align 4
  %13 = icmp slt i32 %11, %12
  br i1 %13, label %14, label %22

14:                                               ; preds = %10
  %15 = load i32, i32* %5, align 4
  %16 = call i32 @date(i32 %15)
  %17 = load i32, i32* %4, align 4
  %18 = add nsw i32 %17, %16
  store i32 %18, i32* %4, align 4
  br label %19

19:                                               ; preds = %14
  %20 = load i32, i32* %5, align 4
  %21 = add nsw i32 %20, 1
  store i32 %21, i32* %5, align 4
  br label %10

22:                                               ; preds = %10
  %23 = load i32, i32* %4, align 4
  store i32 %23, i32* %2, align 4
  br label %24

24:                                               ; preds = %22, %8
  %25 = load i32, i32* %2, align 4
  ret i32 %25
}

declare dso_local i32 @printf(i8*, ...) #1

; Function Attrs: noinline nounwind uwtable
define dso_local i32 @date(i32 %0) #0 {
  %2 = alloca i32, align 4
  %3 = alloca i32, align 4
  store i32 %0, i32* %3, align 4
  %4 = load i32, i32* %3, align 4
  switch i32 %4, label %8 [
    i32 1, label %5
    i32 3, label %5
    i32 5, label %5
    i32 7, label %5
    i32 8, label %5
    i32 10, label %5
    i32 12, label %5
    i32 2, label %6
    i32 4, label %7
    i32 6, label %7
    i32 9, label %7
    i32 11, label %7
  ]

5:                                                ; preds = %1, %1, %1, %1, %1, %1, %1
  store i32 31, i32* %2, align 4
  br label %8

6:                                                ; preds = %1
  store i32 28, i32* %2, align 4
  br label %8

7:                                                ; preds = %1, %1, %1, %1
  store i32 30, i32* %2, align 4
  br label %8

8:                                                ; preds = %5, %6, %7, %1
  %9 = load i32, i32* %2, align 4
  ret i32 %9
}


!llvm.module.flags = !{!0}
!llvm.ident = !{!1}

!0 = !{i32 1, !"wchar_size", i32 4}
!1 = !{!"clang version 10.0.0-4ubuntu1 "}
